; Function Attrs: nounwind uwtable
define ptr @l_Lake_Toml_digitPairFn(ptr noundef %0, ptr noundef readonly captures(none) %1, ptr noundef %2) local_unnamed_addr #1 {
  %4 = ptrtoint ptr %0 to i64
  %5 = and i64 %4, 1
  %.not = icmp eq i64 %5, 0
  br i1 %.not, label %6, label %lean_inc.exit15

6:                                                ; preds = %3
  %.val.i = load i32, ptr %0, align 4, !tbaa !4
  %7 = icmp sgt i32 %.val.i, 0
  br i1 %7, label %8, label %10, !prof !9

8:                                                ; preds = %6
  %9 = add nuw i32 %.val.i, 1
  store i32 %9, ptr %0, align 4, !tbaa !4
  br label %lean_inc.exit15

10:                                               ; preds = %6
  %.not.i16 = icmp eq i32 %.val.i, 0
  br i1 %.not.i16, label %lean_inc.exit15, label %11

11:                                               ; preds = %10
  tail call void @lean_inc_ref_cold(ptr noundef nonnull %0) #4
  br label %lean_inc.exit15

lean_inc.exit15:                                  ; preds = %11, %10, %8, %3
  %12 = tail call ptr @l_Lake_Toml_digitFn(ptr noundef %0, ptr noundef %1, ptr noundef %2)
  %13 = getelementptr inbounds nuw i8, ptr %12, i64 40
  %14 = load ptr, ptr %13, align 8, !tbaa !10
  %15 = ptrtoint ptr %14 to i64
  %16 = and i64 %15, 1
  %.not20 = icmp eq i64 %16, 0
  br i1 %.not20, label %17, label %lean_inc.exit

17:                                               ; preds = %lean_inc.exit15
  %.val.i17 = load i32, ptr %14, align 4, !tbaa !4
  %18 = icmp sgt i32 %.val.i17, 0
  br i1 %18, label %19, label %21, !prof !9

19:                                               ; preds = %17
  %20 = add nuw i32 %.val.i17, 1
  store i32 %20, ptr %14, align 4, !tbaa !4
  br label %lean_inc.exit

21:                                               ; preds = %17
  %.not.i18 = icmp eq i32 %.val.i17, 0
  br i1 %.not.i18, label %lean_inc.exit, label %22

22:                                               ; preds = %21
  tail call void @lean_inc_ref_cold(ptr noundef nonnull %14) #4
  br label %lean_inc.exit

lean_inc.exit:                                    ; preds = %22, %21, %19, %lean_inc.exit15
  %23 = tail call zeroext i8 @l_Option_beqOption____x40_Init_Data_Option_Basic___hyg_160____at_Lean_Parser_ParserState_hasError___spec__1(ptr noundef %14, ptr noundef nonnull inttoptr (i64 1 to ptr)) #4
  %24 = icmp eq i8 %23, 0
  br i1 %24, label %25, label %33

25:                                               ; preds = %lean_inc.exit
  br i1 %.not, label %26, label %lean_dec.exit

26:                                               ; preds = %25
  %27 = load i32, ptr %0, align 4, !tbaa !4
  %28 = icmp sgt i32 %27, 1
  br i1 %28, label %29, label %31, !prof !9

29:                                               ; preds = %26
  %30 = add nsw i32 %27, -1
  store i32 %30, ptr %0, align 4, !tbaa !4
  br label %lean_dec.exit

31:                                               ; preds = %26
  %.not.i = icmp eq i32 %27, 0
  br i1 %.not.i, label %lean_dec.exit, label %32

32:                                               ; preds = %31
  tail call void @lean_dec_ref_cold(ptr noundef nonnull %0) #4
  br label %lean_dec.exit

33:                                               ; preds = %lean_inc.exit
  %34 = tail call ptr @l_Lake_Toml_digitFn(ptr noundef %0, ptr noundef %1, ptr noundef nonnull %12)
  br label %lean_dec.exit

lean_dec.exit:                                    ; preds = %25, %29, %31, %32, %33
  %.0 = phi ptr [ %34, %33 ], [ %12, %32 ], [ %12, %31 ], [ %12, %29 ], [ %12, %25 ]
  ret ptr %.0
}